target datalayout = "e-m:e-p270:32:32-p271:32:32-p272:64:64-i64:64-i128:128-f80:128-n8:16:32:64-S128"
target triple = "x86_64-pc-linux-gnu"

%"class.Imf_3_4::TimeCode" = type { i32, i32 }

; Function Attrs: mustprogress nounwind uwtable
define internal noundef i32 @_ZN7Imf_3_412_GLOBAL__N_18bitFieldEjii(i32 noundef %0, i32 noundef %1, i32 noundef %2) #0 {
  %4 = alloca i32, align 4
  %5 = alloca i32, align 4
  %6 = alloca i32, align 4
  %7 = alloca i32, align 4
  %8 = alloca i32, align 4
  store i32 %0, ptr %4, align 4, !tbaa !12
  store i32 %1, ptr %5, align 4, !tbaa !12
  store i32 %2, ptr %6, align 4, !tbaa !12
  call void @llvm.lifetime.start.p0(i64 4, ptr %7) #5
  %9 = load i32, ptr %5, align 4, !tbaa !12
  store i32 %9, ptr %7, align 4, !tbaa !12
  call void @llvm.lifetime.start.p0(i64 4, ptr %8) #5
  %10 = load i32, ptr %6, align 4, !tbaa !12
  %11 = load i32, ptr %5, align 4, !tbaa !12
  %12 = sub nsw i32 %10, %11
  %13 = add nsw i32 %12, 1
  %14 = shl i32 -1, %13
  %15 = xor i32 %14, -1
  %16 = load i32, ptr %5, align 4, !tbaa !12
  %17 = shl i32 %15, %16
  store i32 %17, ptr %8, align 4, !tbaa !12
  %18 = load i32, ptr %4, align 4, !tbaa !12
  %19 = load i32, ptr %8, align 4, !tbaa !12
  %20 = and i32 %18, %19
  %21 = load i32, ptr %7, align 4, !tbaa !12
  %22 = lshr i32 %20, %21
  call void @llvm.lifetime.end.p0(i64 4, ptr %8) #5
  call void @llvm.lifetime.end.p0(i64 4, ptr %7) #5
  ret i32 %22
}

; Function Attrs: mustprogress uwtable
define noundef zeroext i1 @_ZNK7Imf_3_48TimeCode10fieldPhaseEv(ptr noundef nonnull align 4 dereferenceable(8) %0) #1 align 2 {
  %2 = alloca ptr, align 8
  store ptr %0, ptr %2, align 8, !tbaa !3
  %3 = load ptr, ptr %2, align 8
  %4 = getelementptr inbounds nuw %"class.Imf_3_4::TimeCode", ptr %3, i32 0, i32 0
  %5 = load i32, ptr %4, align 4, !tbaa !8
  %6 = call noundef i32 @_ZN7Imf_3_412_GLOBAL__N_18bitFieldEjii(i32 noundef %5, i32 noundef 15, i32 noundef 15)
  %7 = icmp ne i32 %6, 0
  %8 = xor i1 %7, true
  %9 = xor i1 %8, true
  ret i1 %9
}

; Function Attrs: mustprogress uwtable
define noundef zeroext i1 @_ZNK7Imf_3_48TimeCode4bgf1Ev(ptr noundef nonnull align 4 dereferenceable(8) %0) #1 align 2 {
  %2 = alloca ptr, align 8
  store ptr %0, ptr %2, align 8, !tbaa !3
  %3 = load ptr, ptr %2, align 8
  %4 = getelementptr inbounds nuw %"class.Imf_3_4::TimeCode", ptr %3, i32 0, i32 0
  %5 = load i32, ptr %4, align 4, !tbaa !8
  %6 = call noundef i32 @_ZN7Imf_3_412_GLOBAL__N_18bitFieldEjii(i32 noundef %5, i32 noundef 30, i32 noundef 30)
  %7 = icmp ne i32 %6, 0
  %8 = xor i1 %7, true
  %9 = xor i1 %8, true
  ret i1 %9
}

; Function Attrs: mustprogress uwtable
define noundef zeroext i1 @_ZNK7Imf_3_48TimeCode4bgf2Ev(ptr noundef nonnull align 4 dereferenceable(8) %0) #1 align 2 {
  %2 = alloca ptr, align 8
  store ptr %0, ptr %2, align 8, !tbaa !3
  %3 = load ptr, ptr %2, align 8
  %4 = getelementptr inbounds nuw %"class.Imf_3_4::TimeCode", ptr %3, i32 0, i32 0
  %5 = load i32, ptr %4, align 4, !tbaa !8
  %6 = call noundef i32 @_ZN7Imf_3_412_GLOBAL__N_18bitFieldEjii(i32 noundef %5, i32 noundef 31, i32 noundef 31)
  %7 = icmp ne i32 %6, 0
  %8 = xor i1 %7, true
  %9 = xor i1 %8, true
  ret i1 %9
}

; Function Attrs: mustprogress uwtable
define noundef zeroext i1 @_ZNK7Imf_3_48TimeCode4bgf0Ev(ptr noundef nonnull align 4 dereferenceable(8) %0) #1 align 2 {
  %2 = alloca ptr, align 8
  store ptr %0, ptr %2, align 8, !tbaa !3
  %3 = load ptr, ptr %2, align 8
  %4 = getelementptr inbounds nuw %"class.Imf_3_4::TimeCode", ptr %3, i32 0, i32 0
  %5 = load i32, ptr %4, align 4, !tbaa !8
  %6 = call noundef i32 @_ZN7Imf_3_412_GLOBAL__N_18bitFieldEjii(i32 noundef %5, i32 noundef 23, i32 noundef 23)
  %7 = icmp ne i32 %6, 0
  %8 = xor i1 %7, true
  %9 = xor i1 %8, true
  ret i1 %9
}

; Function Attrs: mustprogress uwtable
define noundef i32 @_ZNK7Imf_3_48TimeCode12timeAndFlagsENS0_7PackingE(ptr noundef nonnull align 4 dereferenceable(8) %0, i32 noundef %1) #1 align 2 {
  %3 = alloca i32, align 4
  %4 = alloca ptr, align 8
  %5 = alloca i32, align 4
  %6 = alloca i32, align 4
  store ptr %0, ptr %4, align 8, !tbaa !3
  store i32 %1, ptr %5, align 4, !tbaa !17
  %7 = load ptr, ptr %4, align 8
  %8 = load i32, ptr %5, align 4, !tbaa !17
  %9 = icmp eq i32 %8, 1
  br i1 %9, label %10, label %36

10:                                               ; preds = %2
  call void @llvm.lifetime.start.p0(i64 4, ptr %6) #5
  %11 = getelementptr inbounds nuw %"class.Imf_3_4::TimeCode", ptr %7, i32 0, i32 0
  %12 = load i32, ptr %11, align 4, !tbaa !8
  store i32 %12, ptr %6, align 4, !tbaa !12
  %13 = load i32, ptr %6, align 4, !tbaa !12
  %14 = and i32 %13, 1065320383
  store i32 %14, ptr %6, align 4, !tbaa !12
  %15 = call noundef zeroext i1 @_ZNK7Imf_3_48TimeCode4bgf0Ev(ptr noundef nonnull align 4 dereferenceable(8) %7)
  %16 = zext i1 %15 to i32
  %17 = shl i32 %16, 15
  %18 = load i32, ptr %6, align 4, !tbaa !12
  %19 = or i32 %18, %17
  store i32 %19, ptr %6, align 4, !tbaa !12
  %20 = call noundef zeroext i1 @_ZNK7Imf_3_48TimeCode4bgf2Ev(ptr noundef nonnull align 4 dereferenceable(8) %7)
  %21 = zext i1 %20 to i32
  %22 = shl i32 %21, 23
  %23 = load i32, ptr %6, align 4, !tbaa !12
  %24 = or i32 %23, %22
  store i32 %24, ptr %6, align 4, !tbaa !12
  %25 = call noundef zeroext i1 @_ZNK7Imf_3_48TimeCode4bgf1Ev(ptr noundef nonnull align 4 dereferenceable(8) %7)
  %26 = zext i1 %25 to i32
  %27 = shl i32 %26, 30
  %28 = load i32, ptr %6, align 4, !tbaa !12
  %29 = or i32 %28, %27
  store i32 %29, ptr %6, align 4, !tbaa !12
  %30 = call noundef zeroext i1 @_ZNK7Imf_3_48TimeCode10fieldPhaseEv(ptr noundef nonnull align 4 dereferenceable(8) %7)
  %31 = zext i1 %30 to i32
  %32 = shl i32 %31, 31
  %33 = load i32, ptr %6, align 4, !tbaa !12
  %34 = or i32 %33, %32
  store i32 %34, ptr %6, align 4, !tbaa !12
  %35 = load i32, ptr %6, align 4, !tbaa !12
  store i32 %35, ptr %3, align 4
  call void @llvm.lifetime.end.p0(i64 4, ptr %6) #5
  br label %46

36:                                               ; preds = %2
  %37 = load i32, ptr %5, align 4, !tbaa !17
  %38 = icmp eq i32 %37, 2
  br i1 %38, label %39, label %43

39:                                               ; preds = %36
  %40 = getelementptr inbounds nuw %"class.Imf_3_4::TimeCode", ptr %7, i32 0, i32 0
  %41 = load i32, ptr %40, align 4, !tbaa !8
  %42 = and i32 %41, -193
  store i32 %42, ptr %3, align 4
  br label %46

43:                                               ; preds = %36
  %44 = getelementptr inbounds nuw %"class.Imf_3_4::TimeCode", ptr %7, i32 0, i32 0
  %45 = load i32, ptr %44, align 4, !tbaa !8
  store i32 %45, ptr %3, align 4
  br label %46

46:                                               ; preds = %43, %39, %10
  %47 = load i32, ptr %3, align 4
  ret i32 %47
}