; Function Attrs: mustprogress nofree norecurse nosync nounwind willreturn memory(argmem: read) uwtable
define noundef i32 @_ZNK7Imf_3_48TimeCode12timeAndFlagsENS0_7PackingE(ptr noundef nonnull readonly align 4 captures(none) dereferenceable(8) %0, i32 noundef %1) local_unnamed_addr #3 align 2 {
  %3 = load i32, ptr %0, align 4, !tbaa !3
  switch i32 %1, label %14 [
    i32 1, label %4
    i32 2, label %12
  ]

4:                                                ; preds = %2
  %5 = lshr i32 %3, 8
  %6 = shl i32 %3, 16
  %7 = and i32 %6, -2147483648
  %8 = and i32 %3, 2139062207
  %9 = and i32 %5, 8421376
  %10 = or disjoint i32 %8, %9
  %11 = or disjoint i32 %10, %7
  br label %14

12:                                               ; preds = %2
  %13 = and i32 %3, -193
  br label %14

14:                                               ; preds = %2, %12, %4
  %.0 = phi i32 [ %11, %4 ], [ %13, %12 ], [ %3, %2 ]
  ret i32 %.0
}